target datalayout = "e-m:e-p270:32:32-p271:32:32-p272:64:64-i64:64-i128:128-f80:128-n8:16:32:64-S128"
target triple = "x86_64-pc-linux-gnu"

%"class.folly::Executor::KeepAlive.0" = type { i64 }
%"class.folly::(anonymous namespace)::DeadlineExecutor" = type { %"class.folly::Executor", %"struct.std::atomic", i64, %"class.folly::Executor::KeepAlive.0" }
%"class.folly::Executor" = type { ptr }
%"struct.std::atomic" = type { %"struct.std::__atomic_base" }
%"struct.std::__atomic_base" = type { i64 }

; Function Attrs: noinline noreturn nounwind uwtable
define linkonce_odr hidden void @__clang_call_terminate(ptr noundef %0) #6 comdat {
  %2 = call ptr @__cxa_begin_catch(ptr %0) #17
  call void @_ZSt9terminatev() #20
  unreachable
}

; Function Attrs: inlinehint mustprogress nounwind uwtable
define linkonce_odr noundef i64 @_ZSt10__exchangeImiET_RS0_OT0_(ptr noundef nonnull align 8 dereferenceable(8) %0, ptr noundef nonnull align 4 dereferenceable(4) %1) #5 comdat {
  %3 = alloca ptr, align 8
  %4 = alloca ptr, align 8
  %5 = alloca i64, align 8
  store ptr %0, ptr %3, align 8, !tbaa !37
  store ptr %1, ptr %4, align 8, !tbaa !39
  call void @llvm.lifetime.start.p0(i64 8, ptr %5) #17
  %6 = load ptr, ptr %3, align 8, !tbaa !37
  %7 = load i64, ptr %6, align 8, !tbaa !12
  store i64 %7, ptr %5, align 8, !tbaa !12
  %8 = load ptr, ptr %4, align 8, !tbaa !39
  %9 = load i32, ptr %8, align 4, !tbaa !22
  %10 = sext i32 %9 to i64
  %11 = load ptr, ptr %3, align 8, !tbaa !37
  store i64 %10, ptr %11, align 8, !tbaa !12
  %12 = load i64, ptr %5, align 8, !tbaa !12
  call void @llvm.lifetime.end.p0(i64 8, ptr %5) #17
  ret i64 %12
}

; Function Attrs: inlinehint mustprogress nounwind uwtable
define linkonce_odr noundef i64 @_ZSt8exchangeImiET_RS0_OT0_(ptr noundef nonnull align 8 dereferenceable(8) %0, ptr noundef nonnull align 4 dereferenceable(4) %1) #5 comdat personality ptr @__gxx_personality_v0 {
  %3 = alloca ptr, align 8
  %4 = alloca ptr, align 8
  store ptr %0, ptr %3, align 8, !tbaa !37
  store ptr %1, ptr %4, align 8, !tbaa !39
  %5 = load ptr, ptr %3, align 8, !tbaa !37
  %6 = load ptr, ptr %4, align 8, !tbaa !39
  %7 = invoke noundef i64 @_ZSt10__exchangeImiET_RS0_OT0_(ptr noundef nonnull align 8 dereferenceable(8) %5, ptr noundef nonnull align 4 dereferenceable(4) %6)
          to label %8 unwind label %9

8:                                                ; preds = %2
  ret i64 %7

9:                                                ; preds = %2
  %10 = landingpad { ptr, i32 }
          catch ptr null
  %11 = extractvalue { ptr, i32 } %10, 0
  call void @__clang_call_terminate(ptr %11) #20
  unreachable
}

; Function Attrs: mustprogress nounwind uwtable
define linkonce_odr noundef ptr @_ZNK5folly8Executor9KeepAliveINS_20SoftRealTimeExecutorEE3getEv(ptr noundef nonnull align 8 dereferenceable(8) %0) #1 comdat align 2 {
  %2 = alloca ptr, align 8
  store ptr %0, ptr %2, align 8, !tbaa !14
  %3 = load ptr, ptr %2, align 8
  %4 = getelementptr inbounds nuw %"class.folly::Executor::KeepAlive.0", ptr %3, i32 0, i32 0
  %5 = load i64, ptr %4, align 8, !tbaa !24
  %6 = and i64 %5, -4
  %7 = inttoptr i64 %6 to ptr
  ret ptr %7
}

; Function Attrs: mustprogress nounwind uwtable
define linkonce_odr void @_ZN5folly8Executor9KeepAliveINS_20SoftRealTimeExecutorEE5resetEv(ptr noundef nonnull align 8 dereferenceable(8) %0) #1 comdat align 2 {
  %2 = alloca ptr, align 8
  %3 = alloca ptr, align 8
  %4 = alloca i64, align 8
  %5 = alloca i32, align 4
  store ptr %0, ptr %2, align 8, !tbaa !14
  %6 = load ptr, ptr %2, align 8
  call void @llvm.lifetime.start.p0(i64 8, ptr %3) #17
  %7 = call noundef ptr @_ZNK5folly8Executor9KeepAliveINS_20SoftRealTimeExecutorEE3getEv(ptr noundef nonnull align 8 dereferenceable(8) %6)
  %8 = icmp eq ptr %7, null
  br i1 %8, label %14, label %9

9:                                                ; preds = %1
  %10 = load ptr, ptr %7, align 8, !tbaa !16
  %11 = getelementptr i8, ptr %10, i64 -72
  %12 = load i64, ptr %11, align 8
  %13 = getelementptr inbounds i8, ptr %7, i64 %12
  br label %14

14:                                               ; preds = %9, %1
  %15 = phi ptr [ %13, %9 ], [ null, %1 ]
  store ptr %15, ptr %3, align 8, !tbaa !18
  %16 = load ptr, ptr %3, align 8, !tbaa !18
  %17 = icmp ne ptr %16, null
  br i1 %17, label %18, label %31

18:                                               ; preds = %14
  call void @llvm.lifetime.start.p0(i64 8, ptr %4) #17
  %19 = getelementptr inbounds nuw %"class.folly::Executor::KeepAlive.0", ptr %6, i32 0, i32 0
  call void @llvm.lifetime.start.p0(i64 4, ptr %5) #17
  store i32 0, ptr %5, align 4, !tbaa !22
  %20 = call noundef i64 @_ZSt8exchangeImiET_RS0_OT0_(ptr noundef nonnull align 8 dereferenceable(8) %19, ptr noundef nonnull align 4 dereferenceable(4) %5) #17
  %21 = and i64 %20, 3
  call void @llvm.lifetime.end.p0(i64 4, ptr %5) #17
  store i64 %21, ptr %4, align 8, !tbaa !12
  %22 = load i64, ptr %4, align 8, !tbaa !12
  %23 = and i64 %22, 3
  %24 = icmp ne i64 %23, 0
  br i1 %24, label %30, label %25

25:                                               ; preds = %18
  %26 = load ptr, ptr %3, align 8, !tbaa !18
  %27 = load ptr, ptr %26, align 8, !tbaa !16
  %28 = getelementptr inbounds ptr, ptr %27, i64 6
  %29 = load ptr, ptr %28, align 8
  call void %29(ptr noundef nonnull align 8 dereferenceable(8) %26) #17
  br label %30

30:                                               ; preds = %25, %18
  call void @llvm.lifetime.end.p0(i64 8, ptr %4) #17
  br label %31

31:                                               ; preds = %30, %14
  call void @llvm.lifetime.end.p0(i64 8, ptr %3) #17
  ret void
}

; Function Attrs: mustprogress nounwind uwtable
define linkonce_odr void @_ZN5folly8ExecutorD2Ev(ptr noundef nonnull align 8 dereferenceable(8) %0) unnamed_addr #1 comdat align 2 {
  %2 = alloca ptr, align 8
  store ptr %0, ptr %2, align 8, !tbaa !18
  ret void
}

; Function Attrs: mustprogress nounwind uwtable
define linkonce_odr void @_ZN5folly8Executor9KeepAliveINS_20SoftRealTimeExecutorEED2Ev(ptr noundef nonnull align 8 dereferenceable(8) %0) unnamed_addr #1 comdat align 2 {
  %2 = alloca ptr, align 8
  store ptr %0, ptr %2, align 8, !tbaa !14
  %3 = load ptr, ptr %2, align 8
  call void @_ZN5folly8Executor9KeepAliveINS_20SoftRealTimeExecutorEE5resetEv(ptr noundef nonnull align 8 dereferenceable(8) %3) #17
  ret void
}

; Function Attrs: inlinehint mustprogress nounwind uwtable
define internal void @_ZN5folly12_GLOBAL__N_116DeadlineExecutorD2Ev(ptr noundef nonnull align 8 dereferenceable(32) %0) unnamed_addr #5 align 2 {
  %2 = alloca ptr, align 8
  store ptr %0, ptr %2, align 8, !tbaa !20
  %3 = load ptr, ptr %2, align 8
  store ptr getelementptr inbounds inrange(-16, 56) ({ [9 x ptr] }, ptr @_ZTVN5folly12_GLOBAL__N_116DeadlineExecutorE, i32 0, i32 0, i32 2), ptr %3, align 8, !tbaa !16
  %4 = getelementptr inbounds nuw %"class.folly::(anonymous namespace)::DeadlineExecutor", ptr %3, i32 0, i32 3
  call void @_ZN5folly8Executor9KeepAliveINS_20SoftRealTimeExecutorEED2Ev(ptr noundef nonnull align 8 dereferenceable(8) %4) #17
  call void @_ZN5folly8ExecutorD2Ev(ptr noundef nonnull align 8 dereferenceable(8) %3) #17
  ret void
}

; Function Attrs: inlinehint mustprogress nounwind uwtable
define internal void @_ZN5folly12_GLOBAL__N_116DeadlineExecutorD0Ev(ptr noundef nonnull align 8 dereferenceable(32) %0) unnamed_addr #5 align 2 {
  %2 = alloca ptr, align 8
  store ptr %0, ptr %2, align 8, !tbaa !20
  %3 = load ptr, ptr %2, align 8
  call void @_ZN5folly12_GLOBAL__N_116DeadlineExecutorD2Ev(ptr noundef nonnull align 8 dereferenceable(32) %3) #17
  call void @_ZdlPvm(ptr noundef %3, i64 noundef 32) #19
  ret void
}