; Function Attrs: inlinehint mustprogress nounwind uwtable
define internal void @_ZN5folly12_GLOBAL__N_116DeadlineExecutorD0Ev(ptr noundef nonnull align 8 dereferenceable(32) initializes((0, 8)) %0) unnamed_addr #4 align 2 personality ptr @__gxx_personality_v0 {
  store ptr getelementptr inbounds nuw inrange(-16, 56) (i8, ptr @_ZTVN5folly12_GLOBAL__N_116DeadlineExecutorE, i64 16), ptr %0, align 8, !tbaa !7
  %2 = getelementptr inbounds nuw i8, ptr %0, i64 24
  %3 = load i64, ptr %2, align 8, !tbaa !25
  %4 = and i64 %3, -4
  %5 = icmp eq i64 %4, 0
  br i1 %5, label %_ZN5folly12_GLOBAL__N_116DeadlineExecutorD2Ev.exit, label %6

6:                                                ; preds = %1
  %7 = inttoptr i64 %4 to ptr
  %8 = load ptr, ptr %7, align 8, !tbaa !7
  %9 = getelementptr i8, ptr %8, i64 -72
  %10 = load i64, ptr %9, align 8
  store i64 0, ptr %2, align 8, !tbaa !28
  %11 = and i64 %3, 3
  %.not4.i.i.i = icmp eq i64 %11, 0
  br i1 %.not4.i.i.i, label %12, label %_ZN5folly12_GLOBAL__N_116DeadlineExecutorD2Ev.exit

12:                                               ; preds = %6
  %13 = getelementptr inbounds i8, ptr %7, i64 %10
  %14 = load ptr, ptr %13, align 8, !tbaa !7
  %15 = getelementptr inbounds nuw i8, ptr %14, i64 48
  %16 = load ptr, ptr %15, align 8
  tail call void %16(ptr noundef nonnull align 8 dereferenceable(8) %13) #12
  br label %_ZN5folly12_GLOBAL__N_116DeadlineExecutorD2Ev.exit

_ZN5folly12_GLOBAL__N_116DeadlineExecutorD2Ev.exit: ; preds = %1, %6, %12
  tail call void @_ZdlPvm(ptr noundef nonnull %0, i64 noundef 32) #14
  ret void
}